; Function Attrs: mustprogress nofree norecurse nosync nounwind null_pointer_is_valid sspstrong willreturn memory(read, argmem: readwrite, inaccessiblemem: none) uwtable
define void @_ZNK15PacketListModel5indexEiiRK11QModelIndex(ptr dead_on_unwind noalias writable writeonly sret(%class.QModelIndex) align 8 captures(none) initializes((0, 24)) %0, ptr noundef align 8 dereferenceable_or_null(156) %1, i32 noundef %2, i32 noundef %3, ptr readnone align 8 captures(none) %4) unnamed_addr #10 align 2 {
  %6 = sext i32 %2 to i64
  %7 = getelementptr inbounds nuw i8, ptr %1, i64 88
  %8 = load i64, ptr %7, align 8
  %9 = icmp sle i64 %8, %6
  %10 = icmp slt i32 %2, 0
  %or.cond = or i1 %10, %9
  br i1 %or.cond, label %15, label %11

11:                                               ; preds = %5
  %12 = getelementptr inbounds nuw i8, ptr %1, i64 16
  %13 = load ptr, ptr %12, align 8
  %.not = icmp ne ptr %13, null
  %14 = load i32, ptr getelementptr inbounds nuw (i8, ptr @prefs, i64 8), align 8
  %.not10 = icmp slt i32 %3, %14
  %or.cond11 = select i1 %.not, i1 %.not10, i1 false
  br i1 %or.cond11, label %18, label %15

15:                                               ; preds = %11, %5
  store i32 -1, ptr %0, align 8
  %16 = getelementptr inbounds nuw i8, ptr %0, i64 4
  store i32 -1, ptr %16, align 4
  %17 = getelementptr inbounds nuw i8, ptr %0, i64 8
  tail call void @llvm.memset.p0.i64(ptr noundef nonnull align 8 dereferenceable(16) %17, i8 0, i64 16, i1 false)
  br label %27

18:                                               ; preds = %11
  %19 = getelementptr inbounds nuw i8, ptr %1, i64 80
  %20 = load ptr, ptr %19, align 8
  %21 = getelementptr ptr, ptr %20, i64 %6
  %22 = load ptr, ptr %21, align 8
  store i32 %2, ptr %0, align 8, !alias.scope !15
  %23 = getelementptr inbounds nuw i8, ptr %0, i64 4
  store i32 %3, ptr %23, align 4, !alias.scope !15
  %24 = getelementptr inbounds nuw i8, ptr %0, i64 8
  %25 = ptrtoint ptr %22 to i64
  store i64 %25, ptr %24, align 8, !alias.scope !15
  %26 = getelementptr inbounds nuw i8, ptr %0, i64 16
  store ptr %1, ptr %26, align 8, !alias.scope !15
  br label %27

27:                                               ; preds = %18, %15
  ret void
}